target datalayout = "e-m:e-p270:32:32-p271:32:32-p272:64:64-i64:64-i128:128-f80:128-n8:16:32:64-S128"
target triple = "x86_64-pc-linux-gnu"

%struct.FFBitStreamFilter = type { %struct.AVBitStreamFilter, i32, ptr, ptr, ptr, ptr }
%struct.AVBitStreamFilter = type { ptr, ptr, ptr }
%struct.AVBSFContext = type { ptr, ptr, ptr, ptr, ptr, %struct.AVRational, %struct.AVRational }
%struct.AVRational = type { i32, i32 }
%struct.FFBSFContext = type { %struct.AVBSFContext, ptr, i32 }

; Function Attrs: alwaysinline nounwind uwtable
define internal ptr @ff_bsf(ptr noundef %0) #2 {
  %2 = alloca ptr, align 8
  store ptr %0, ptr %2, align 8, !tbaa !27
  %3 = load ptr, ptr %2, align 8, !tbaa !27
  ret ptr %3
}

; Function Attrs: alwaysinline nounwind uwtable
define internal ptr @ffbsfcontext(ptr noundef %0) #2 {
  %2 = alloca ptr, align 8
  store ptr %0, ptr %2, align 8, !tbaa !10
  %3 = load ptr, ptr %2, align 8, !tbaa !10
  ret ptr %3
}

; Function Attrs: nounwind uwtable
define void @av_bsf_free(ptr noundef %0) #0 {
  %2 = alloca ptr, align 8
  %3 = alloca ptr, align 8
  %4 = alloca ptr, align 8
  %5 = alloca i32, align 4
  store ptr %0, ptr %2, align 8, !tbaa !4
  call void @llvm.lifetime.start.p0(i64 8, ptr %3) #6
  call void @llvm.lifetime.start.p0(i64 8, ptr %4) #6
  %6 = load ptr, ptr %2, align 8, !tbaa !4
  %7 = icmp ne ptr %6, null
  br i1 %7, label %8, label %12

8:                                                ; preds = %1
  %9 = load ptr, ptr %2, align 8, !tbaa !4
  %10 = load ptr, ptr %9, align 8, !tbaa !10
  %11 = icmp ne ptr %10, null
  br i1 %11, label %13, label %12

12:                                               ; preds = %8, %1
  store i32 1, ptr %5, align 4
  br label %60

13:                                               ; preds = %8
  %14 = load ptr, ptr %2, align 8, !tbaa !4
  %15 = load ptr, ptr %14, align 8, !tbaa !10
  store ptr %15, ptr %3, align 8, !tbaa !10
  %16 = load ptr, ptr %3, align 8, !tbaa !10
  %17 = call ptr @ffbsfcontext(ptr noundef %16)
  store ptr %17, ptr %4, align 8, !tbaa !12
  %18 = load ptr, ptr %3, align 8, !tbaa !10
  %19 = getelementptr inbounds nuw %struct.AVBSFContext, ptr %18, i32 0, i32 2
  %20 = load ptr, ptr %19, align 8, !tbaa !14
  %21 = icmp ne ptr %20, null
  br i1 %21, label %22, label %52

22:                                               ; preds = %13
  %23 = load ptr, ptr %3, align 8, !tbaa !10
  %24 = getelementptr inbounds nuw %struct.AVBSFContext, ptr %23, i32 0, i32 1
  %25 = load ptr, ptr %24, align 8, !tbaa !21
  %26 = call ptr @ff_bsf(ptr noundef %25)
  %27 = getelementptr inbounds nuw %struct.FFBitStreamFilter, ptr %26, i32 0, i32 4
  %28 = load ptr, ptr %27, align 8, !tbaa !22
  %29 = icmp ne ptr %28, null
  br i1 %29, label %30, label %38

30:                                               ; preds = %22
  %31 = load ptr, ptr %3, align 8, !tbaa !10
  %32 = getelementptr inbounds nuw %struct.AVBSFContext, ptr %31, i32 0, i32 1
  %33 = load ptr, ptr %32, align 8, !tbaa !21
  %34 = call ptr @ff_bsf(ptr noundef %33)
  %35 = getelementptr inbounds nuw %struct.FFBitStreamFilter, ptr %34, i32 0, i32 4
  %36 = load ptr, ptr %35, align 8, !tbaa !22
  %37 = load ptr, ptr %3, align 8, !tbaa !10
  call void %36(ptr noundef %37)
  br label %38

38:                                               ; preds = %30, %22
  %39 = load ptr, ptr %3, align 8, !tbaa !10
  %40 = getelementptr inbounds nuw %struct.AVBSFContext, ptr %39, i32 0, i32 1
  %41 = load ptr, ptr %40, align 8, !tbaa !21
  %42 = getelementptr inbounds nuw %struct.AVBitStreamFilter, ptr %41, i32 0, i32 2
  %43 = load ptr, ptr %42, align 8, !tbaa !26
  %44 = icmp ne ptr %43, null
  br i1 %44, label %45, label %49

45:                                               ; preds = %38
  %46 = load ptr, ptr %3, align 8, !tbaa !10
  %47 = getelementptr inbounds nuw %struct.AVBSFContext, ptr %46, i32 0, i32 2
  %48 = load ptr, ptr %47, align 8, !tbaa !14
  call void @av_opt_free(ptr noundef %48)
  br label %49

49:                                               ; preds = %45, %38
  %50 = load ptr, ptr %3, align 8, !tbaa !10
  %51 = getelementptr inbounds nuw %struct.AVBSFContext, ptr %50, i32 0, i32 2
  call void @av_freep(ptr noundef %51)
  br label %52

52:                                               ; preds = %49, %13
  %53 = load ptr, ptr %4, align 8, !tbaa !12
  %54 = getelementptr inbounds nuw %struct.FFBSFContext, ptr %53, i32 0, i32 1
  call void @av_packet_free(ptr noundef %54)
  %55 = load ptr, ptr %3, align 8, !tbaa !10
  %56 = getelementptr inbounds nuw %struct.AVBSFContext, ptr %55, i32 0, i32 3
  call void @avcodec_parameters_free(ptr noundef %56)
  %57 = load ptr, ptr %3, align 8, !tbaa !10
  %58 = getelementptr inbounds nuw %struct.AVBSFContext, ptr %57, i32 0, i32 4
  call void @avcodec_parameters_free(ptr noundef %58)
  %59 = load ptr, ptr %2, align 8, !tbaa !4
  call void @av_freep(ptr noundef %59)
  store i32 0, ptr %5, align 4
  br label %60

60:                                               ; preds = %52, %12
  call void @llvm.lifetime.end.p0(i64 8, ptr %4) #6
  call void @llvm.lifetime.end.p0(i64 8, ptr %3) #6
  %61 = load i32, ptr %5, align 4
  switch i32 %61, label %63 [
    i32 0, label %62
    i32 1, label %62
  ]

62:                                               ; preds = %60, %60
  ret void

63:                                               ; preds = %60
  unreachable
}