; Function Attrs: nounwind uwtable
define void @av_bsf_free(ptr noundef %0) local_unnamed_addr #0 {
  %.not = icmp eq ptr %0, null
  br i1 %.not, label %24, label %2

2:                                                ; preds = %1
  %3 = load ptr, ptr %0, align 8, !tbaa !4
  %.not16 = icmp eq ptr %3, null
  br i1 %.not16, label %24, label %4

4:                                                ; preds = %2
  %5 = getelementptr inbounds nuw i8, ptr %3, i64 16
  %6 = load ptr, ptr %5, align 8, !tbaa !9
  %.not17 = icmp eq ptr %6, null
  br i1 %.not17, label %20, label %7

7:                                                ; preds = %4
  %8 = getelementptr inbounds nuw i8, ptr %3, i64 8
  %9 = load ptr, ptr %8, align 8, !tbaa !16
  %10 = getelementptr inbounds nuw i8, ptr %9, i64 48
  %11 = load ptr, ptr %10, align 8, !tbaa !17
  %.not18 = icmp eq ptr %11, null
  br i1 %.not18, label %13, label %12

12:                                               ; preds = %7
  tail call void %11(ptr noundef nonnull %3) #6
  %.pre = load ptr, ptr %8, align 8, !tbaa !16
  br label %13

13:                                               ; preds = %12, %7
  %14 = phi ptr [ %.pre, %12 ], [ %9, %7 ]
  %15 = getelementptr inbounds nuw i8, ptr %14, i64 16
  %16 = load ptr, ptr %15, align 8, !tbaa !21
  %.not19 = icmp eq ptr %16, null
  br i1 %.not19, label %19, label %17

17:                                               ; preds = %13
  %18 = load ptr, ptr %5, align 8, !tbaa !9
  tail call void @av_opt_free(ptr noundef %18) #6
  br label %19

19:                                               ; preds = %17, %13
  tail call void @av_freep(ptr noundef nonnull %5) #6
  br label %20

20:                                               ; preds = %19, %4
  %21 = getelementptr inbounds nuw i8, ptr %3, i64 56
  tail call void @av_packet_free(ptr noundef nonnull %21) #6
  %22 = getelementptr inbounds nuw i8, ptr %3, i64 24
  tail call void @avcodec_parameters_free(ptr noundef nonnull %22) #6
  %23 = getelementptr inbounds nuw i8, ptr %3, i64 32
  tail call void @avcodec_parameters_free(ptr noundef nonnull %23) #6
  tail call void @av_freep(ptr noundef nonnull %0) #6
  br label %24

24:                                               ; preds = %1, %2, %20
  ret void
}